; Function Attrs: nounwind uwtable
define internal range(i32 0, 28) i32 @imap_setup_connection(ptr noundef writeonly captures(none) initializes((440, 448)) %0, ptr noundef captures(none) %1) #0 {
  %3 = load ptr, ptr @Curl_ccalloc, align 8, !tbaa !3
  %4 = tail call ptr %3(i64 noundef 1, i64 noundef 80) #7
  %5 = getelementptr inbounds nuw i8, ptr %0, i64 440
  store ptr %4, ptr %5, align 8, !tbaa !7
  %.not.i.not = icmp eq ptr %4, null
  br i1 %.not.i.not, label %10, label %6

6:                                                ; preds = %2
  %7 = getelementptr inbounds nuw i8, ptr %1, i64 952
  %8 = load i64, ptr %7, align 8
  %9 = and i64 %8, -134217729
  store i64 %9, ptr %7, align 8
  br label %10

10:                                               ; preds = %2, %6
  %.0 = phi i32 [ 0, %6 ], [ 27, %2 ]
  ret i32 %.0
}